; Function Attrs: nounwind uwtable
define void @Java_sun_font_FreetypeFontScaler_initIDs(ptr noundef %0, ptr nocapture noundef readnone %1, ptr noundef %2) local_unnamed_addr #0 {
  %4 = alloca i8, align 1
  %5 = load ptr, ptr %0, align 8
  %6 = getelementptr inbounds i8, ptr %5, i64 264
  %7 = load ptr, ptr %6, align 8
  %8 = tail call ptr %7(ptr noundef nonnull %0, ptr noundef %2, ptr noundef nonnull @.str, ptr noundef nonnull @.str.1) #19
  store ptr %8, ptr @invalidateScalerMID, align 8
  %9 = call i64 (ptr, ptr, ptr, ptr, ptr, ...) @JNU_CallStaticMethodByName(ptr noundef nonnull %0, ptr noundef nonnull %4, ptr noundef nonnull @.str.2, ptr noundef nonnull @.str.3, ptr noundef nonnull @.str.4) #19
  %.sroa.0.0.extract.trunc = trunc i64 %9 to i8
  store i8 %.sroa.0.0.extract.trunc, ptr @debugFonts, align 1
  ret void
}